ccopy_reg
_reconstructor
p0
(cargparse
Namespace
p1
c__builtin__
object
p2
Ntp3
Rp4
(dp5
S'netxyz_kernel_size'
p6
(lp7
(lp8
I1
aI3
aa(lp9
I1
aI1
aa(lp10
I1
aI1
aasS'classification_layers'
p11
(lp12
I512
aI256
asS'lambda_param'
p13
F0.005
sS'model_dir'
p14
S'./saved_models'
p15
sS'save_every'
p16
I1
sS'decay_rate'
p17
F0.9
sS'output_dim'
p18
I3
sS'batch_size'
p19
I128
sS'initializer'
p20
S'uniform'
p21
sS'learning_rate'
p22
F0.005
sS'netxyz_mpl_size'
p23
(lp24
I64
aI64
aI64
asS'display'
p25
I100
sS'grad_clip'
p26
F10.0
sS'input_dim'
p27
(lp28
I100
aI4
aI1
asS'num_epochs'
p29
I100
sS'neti_kernel_size'
p30
(lp31
(lp32
I1
aI1
aa(lp33
I1
aI1
aa(lp34
I1
aI1
aasS'neti_mpl_size'
p35
(lp36
I64
aI64
aI64
asS'keep_prob'
p37
F0.5
sS'kernel_size'
p38
(lp39
(lp40
I1
aI1
aa(lp41
I1
aI1
aasS'mpl_size'
p42
(lp43
I128
aI1024
asb.