ccopy_reg
_reconstructor
p0
(cargparse
Namespace
p1
c__builtin__
object
p2
Ntp3
Rp4
(dp5
S'netxyz_kernel_size'
p6
(lp7
(lp8
I1
aI3
aa(lp9
I1
aI1
aa(lp10
I1
aI1
aasS'classification_layers'
p11
(lp12
I512
aI256
asS'lambda_param'
p13
F0.005
sS'save_every'
p14
I10
sS'decay_rate'
p15
F0.95
sS'output_dim'
p16
I3
sS'batch_size'
p17
I128
sS'initializer'
p18
S'uniform'
p19
sS'learning_rate'
p20
F0.005
sS'netxyz_mpl_size'
p21
(lp22
I64
aI64
aI64
asS'display'
p23
I100
sS'grad_clip'
p24
F10.0
sS'input_dim'
p25
(lp26
I100
aI4
aI1
asS'num_epochs'
p27
I100
sS'neti_kernel_size'
p28
(lp29
(lp30
I1
aI1
aa(lp31
I1
aI1
aa(lp32
I1
aI1
aasS'neti_mpl_size'
p33
(lp34
I64
aI64
aI64
asS'keep_prob'
p35
F0.5
sS'kernel_size'
p36
(lp37
(lp38
I1
aI1
aa(lp39
I1
aI1
aasS'mpl_size'
p40
(lp41
I128
aI1024
asb.