ccopy_reg
_reconstructor
p0
(cargparse
Namespace
p1
c__builtin__
object
p2
Ntp3
Rp4
(dp5
S'classification_layers'
p6
(lp7
I512
aI256
asS'grad_clip'
p8
F10.0
sS'lambda_param'
p9
F0.005
sS'save_every'
p10
I100
sS'display'
p11
I100
sS'output_dim'
p12
I3
sS'batch_size'
p13
I128
sS'initializer'
p14
S'uniform'
p15
sS'learning_rate'
p16
F0.005
sS'decay_rate'
p17
F0.95
sS'input_dim'
p18
(lp19
I100
aI3
aI1
asS'num_epochs'
p20
I100
sS'keep_prob'
p21
F1.0
sS'kernel_size'
p22
(lp23
(lp24
I1
aI3
aa(lp25
I1
aI1
aa(lp26
I1
aI1
aa(lp27
I1
aI1
aa(lp28
I1
aI1
aa(lp29
I1
aI1
aa(lp30
I1
aI1
aa(lp31
I1
aI1
aasS'mpl_size'
p32
(lp33
I64
aI64
aI64
aI128
aI1024
asb.